Microchip MPLAB XC8 Compiler V2.32

Linker command line:

-W-3 --edf=C:\Program Files\Microchip\xc8\v2.32\pic\dat\en_msgs.txt -cn \
  -h+dist/default/production\Esclavo00.X.production.sym \
  --cmf=dist/default/production\Esclavo00.X.production.cmf -z -Q16F887 \
  -oC:\Users\LUIS~1.MAR\AppData\Local\Temp\xcAse80.4 \
  --defsym=__MPLAB_BUILD=1 \
  -Mdist/default/production/Esclavo00.X.production.map -E1 \
  -ver=XC8 Compiler --acfsm=1493 -ASTACK=0110h-016Fh -pstack=STACK \
  -ACODE=00h-07FFhx4 -ASTRCODE=00h-01FFFh -ASTRING=00h-0FFhx32 \
  -ACONST=00h-0FFhx32 -AENTRY=00h-0FFhx32 -ACOMMON=070h-07Fh \
  -ABANK0=020h-06Fh -ABANK1=0A0h-0EFh -ABANK2=0110h-016Fh \
  -ABANK3=0190h-01EFh -ARAM=020h-06Fh,0A0h-0EFh,0110h-016Fh,0190h-01EFh \
  -AABS1=020h-07Fh,0A0h-0EFh,0110h-016Fh,0190h-01EFh -ASFR0=00h-01Fh \
  -ASFR1=080h-09Fh -ASFR2=0100h-010Fh -ASFR3=0180h-018Fh \
  -ACONFIG=02007h-02008h -DCONFIG=2 -AIDLOC=02000h-02003h -DIDLOC=2 \
  -AEEDATA=00h-0FFh/02100h -peeprom_data=EEDATA -DEEDATA=2 -DCODE=2 \
  -DSTRCODE=2 -DSTRING=2 -DCONST=2 -DENTRY=2 \
  -preset_vec=00h,intentry=04h,init,end_init -ppowerup=CODE -pcinit=CODE \
  -pfunctab=ENTRY -k C:\Users\LUIS~1.MAR\AppData\Local\Temp\xcAse80.o \
  dist/default/production\Esclavo00.X.production.o 

Object code version is 3.11

Machine type is 16F887



                Name                               Link     Load   Length Selector   Space Scale
C:\Users\LUIS~1.MAR\AppData\Local\Temp\xcAse80.o
                end_init                              E        E        3        8       0
                reset_vec                             0        0        3        0       0
                config                             2007     2007        2        0       4
dist/default/production\Esclavo00.X.production.o
                cinit                                11       11       1A        8       0
                intentry                              4        4        A        8       0
                config                             2007     2007        2        0       4
                text6                               21D      21D       12        8       0
                text5                                C8       C8       91        8       0
                text4                               240      240        F      480       0
                text3                               1FB      1FB       22        8       0
                text2                                2B       2B       9D        8       0
                text1                               1AC      1AC       4F        8       0
                maintext                            159      159       53        8       0
                cstackBANK0                          3C       3C       1A       20       1
                cstackCOMMON                         70       70        9       70       1
                clrtext                             24F      24F        8      480       0
                bssBANK1                             A0       A0       32       A0       1
                bssBANK0                             20       20       1C       20       1
                bssCOMMON                            79       79        5       70       1
                strings                             22F      22F       11      45E       0

TOTAL           Name                               Link     Load   Length     Space
        CLASS   STACK          

        CLASS   CODE           
                end_init                              E        E        3         0
                cinit                                11       11       1A         0
                intentry                              4        4        A         0
                reset_vec                             0        0        3         0
                text6                               21D      21D       12         0
                text5                                C8       C8       91         0
                text4                               240      240        F         0
                text3                               1FB      1FB       22         0
                text2                                2B       2B       9D         0
                text1                               1AC      1AC       4F         0
                maintext                            159      159       53         0
                clrtext                             24F      24F        8         0

        CLASS   STRCODE        

        CLASS   STRING         
                strings                             22F      22F       11         0

        CLASS   CONST          

        CLASS   ENTRY          

        CLASS   COMMON         
                cstackCOMMON                         70       70        9         1
                bssCOMMON                            79       79        5         1

        CLASS   BANK0          
                cstackBANK0                          3C       3C       1A         1
                bssBANK0                             20       20       1C         1

        CLASS   BANK1          
                bssBANK1                             A0       A0       32         1

        CLASS   BANK2          

        CLASS   BANK3          

        CLASS   RAM            

        CLASS   ABS1           
                abs_s1                               7E       7E        2         1

        CLASS   SFR0           

        CLASS   SFR1           

        CLASS   SFR2           

        CLASS   SFR3           

        CLASS   CONFIG         
                config                             2007     2007        2         4

        CLASS   IDLOC          

        CLASS   EEDATA         



SEGMENTS        Name                           Load    Length   Top    Selector   Space  Class     Delta

                reset_vec                      000000  000003  000003         0       0  CODE        2
                intentry                       000004  00022B  00022F         8       0  CODE        2
                bssBANK0                       000020  000036  000056        20       1  BANK0       1
                cstackCOMMON                   000070  00000E  00007E        70       1  COMMON      1
                bssBANK1                       0000A0  000032  0000D2        A0       1  BANK1       1
                strings                        00022F  000011  000240       45E       0  STRING      2
                text4                          000240  000017  000257       480       0  CODE        2


UNUSED ADDRESS RANGES

        Name                Unused          Largest block    Delta
        BANK0            0056-006F             1A           1
        BANK1            00D2-00EF             1E           1
        BANK2            0110-016F             60           1
        BANK3            0190-01EF             60           1
        CODE             0003-0003              1           2
                         0257-1FFF            800
        CONST            0003-0003              1           2
                         0257-1FFF            100
        EEDATA           2100-21FF            100           2
        ENTRY            0003-0003              1           2
                         0257-1FFF            100
        IDLOC            2000-2003              4           2
        RAM              0056-006F             1A           1
                         00D2-00EF             1E
                         0110-016F             60
                         0190-01EF             60
        SFR0             0000-001F             20           1
        SFR1             0080-009F             20           1
        SFR2             0100-010F             10           1
        SFR3             0180-018F             10           1
        STACK            0110-016F             60           1
        STRCODE          0003-0003              1           2
                         0257-1FFF           1DA9
        STRING           0003-0003              1           2
                         0257-1FFF            100

                                  Symbol Table

?___aldiv                cstackBANK0  003C
?_adc_start              cstackCOMMON 0070
_ADCON0bits              (abs)        001F
_ADCON1bits              (abs)        009F
_ADRESH                  (abs)        001E
_ADRESL                  (abs)        009E
_BF                      (abs)        04A0
_INTCONbits              (abs)        000B
_PIE1bits                (abs)        008C
_PIR1bits                (abs)        000C
_PORTB                   (abs)        0006
_PORTBbits               (abs)        0006
_PORTD                   (abs)        0008
_PORTDbits               (abs)        0008
_RCREG                   (abs)        001A
_RCSTAbits               (abs)        0018
_SPBRG                   (abs)        0099
_SSPADD                  (abs)        0093
_SSPBUF                  (abs)        0013
_SSPCON                  (abs)        0014
_SSPCON2                 (abs)        0091
_SSPCON2bits             (abs)        0091
_SSPCONbits              (abs)        0014
_SSPIF                   (abs)        0063
_SSPSTAT                 (abs)        0094
_SSPSTATbits             (abs)        0094
_TRISA                   (abs)        0085
_TRISB                   (abs)        0086
_TRISBbits               (abs)        0086
_TRISC3                  (abs)        043B
_TRISC4                  (abs)        043C
_TRISCbits               (abs)        0087
_TRISD                   (abs)        0088
_TXREG                   (abs)        0019
_TXSTAbits               (abs)        0098
__Habs1                  abs1         0000
__Hbank0                 bank0        0000
__Hbank1                 bank1        0000
__Hbank2                 bank2        0000
__Hbank3                 bank3        0000
__HbssBANK0              bssBANK0     0000
__HbssBANK1              bssBANK1     0000
__HbssCOMMON             bssCOMMON    0000
__Hcinit                 cinit        002B
__Hclrtext               clrtext      0000
__Hcode                  code         0000
__Hcommon                common       0000
__Hconfig                config       2009
__HcstackBANK0           cstackBANK0  0000
__HcstackCOMMON          cstackCOMMON 0000
__Heeprom_data           eeprom_data  0000
__Hend_init              end_init     0011
__Hfunctab               functab      0000
__Hinit                  init         000E
__Hintentry              intentry     000E
__Hmaintext              maintext     0000
__Hpowerup               powerup      0000
__Hram                   ram          0000
__Hreset_vec             reset_vec    0003
__Hsfr0                  sfr0         0000
__Hsfr1                  sfr1         0000
__Hsfr2                  sfr2         0000
__Hsfr3                  sfr3         0000
__Hspace_0               (abs)        0257
__Hspace_1               (abs)        00D2
__Hspace_2               (abs)        0000
__Hspace_3               (abs)        0000
__Hspace_4               (abs)        4010
__Hstack                 stack        0000
__Hstrings               strings      0000
__Htext                  text         0000
__Labs1                  abs1         0000
__Lbank0                 bank0        0000
__Lbank1                 bank1        0000
__Lbank2                 bank2        0000
__Lbank3                 bank3        0000
__LbssBANK0              bssBANK0     0000
__LbssBANK1              bssBANK1     0000
__LbssCOMMON             bssCOMMON    0000
__Lcinit                 cinit        0011
__Lclrtext               clrtext      0000
__Lcode                  code         0000
__Lcommon                common       0000
__Lconfig                config       0000
__LcstackBANK0           cstackBANK0  0000
__LcstackCOMMON          cstackCOMMON 0000
__Leeprom_data           eeprom_data  0000
__Lend_init              end_init     000E
__Lfunctab               functab      0000
__Linit                  init         000E
__Lintentry              intentry     0004
__Lmaintext              maintext     0000
__Lpowerup               powerup      0000
__Lram                   ram          0000
__Lreset_vec             reset_vec    0000
__Lsfr0                  sfr0         0000
__Lsfr1                  sfr1         0000
__Lsfr2                  sfr2         0000
__Lsfr3                  sfr3         0000
__Lspace_0               (abs)        0000
__Lspace_1               (abs)        0000
__Lspace_2               (abs)        0000
__Lspace_3               (abs)        0000
__Lspace_4               (abs)        0000
__Lstack                 stack        0000
__Lstrings               strings      0000
__Ltext                  text         0000
__S0                     (abs)        0257
__S1                     (abs)        00D2
__S2                     (abs)        0000
__S3                     (abs)        0000
___aldiv                 text2        002B
___aldiv@counter         cstackBANK0  0045
___aldiv@dividend        cstackBANK0  0040
___aldiv@divisor         cstackBANK0  003C
___aldiv@quotient        cstackBANK0  0047
___aldiv@sign            cstackBANK0  0046
___int_sp                stack        0000
___latbits               (abs)        0002
___sp                    stack        0000
___stackhi               (abs)        0000
___stacklo               (abs)        0000
__end_of___aldiv         text2        00C8
__end_of__initialization cinit        0027
__end_of__stringtab      strings      0235
__end_of_adc_init        text4        024F
__end_of_adc_start       text6        022F
__end_of_i2c_Slave_Init  text3        021D
__end_of_main            maintext     01AC
__end_of_myISR           text5        0159
__end_of_usart_init      text1        01FB
__initialization         cinit        0011
__pbssBANK0              bssBANK0     0020
__pbssBANK1              bssBANK1     00A0
__pbssCOMMON             bssCOMMON    0079
__pcstackBANK0           cstackBANK0  003C
__pcstackCOMMON          cstackCOMMON 0070
__pintentry              intentry     0004
__pmaintext              maintext     0159
__pstrings               strings      022F
__ptext1                 text1        01AC
__ptext2                 text2        002B
__ptext3                 text3        01FB
__ptext4                 text4        0240
__ptext5                 text5        00C8
__ptext6                 text6        021D
__size_of___aldiv        (abs)        0000
__size_of_adc_init       (abs)        0000
__size_of_adc_start      (abs)        0000
__size_of_i2c_Slave_Init (abs)        0000
__size_of_main           (abs)        0000
__size_of_myISR          (abs)        0000
__size_of_usart_init     (abs)        0000
__stringbase             strings      0234
__stringtab              strings      022F
_adc                     bssBANK0     0039
_adc_init                text4        0240
_adc_start               text6        021D
_buffer                  bssBANK1     00A0
_dir                     bssBANK0     0036
_i2c_Slave_Init          text3        01FB
_main                    maintext     0159
_myISR                   text5        00C8
_usart_init              text1        01AC
_usart_init$1521         cstackBANK0  004F
_z                       bssCOMMON    007D
adc_start@lectura        cstackCOMMON 0072
btemp                    (abs)        007E
clear_ram0               clrtext      024F
end_of_initialization    cinit        0027
i2c_Slave_Init@address   cstackBANK0  003C
interrupt_function       intentry     0004
intlevel0                functab      0000
intlevel1                functab      0000
intlevel2                functab      0000
intlevel3                functab      0000
intlevel4                functab      0000
intlevel5                functab      0000
reset_vec                reset_vec    0000
saved_w                  (abs)        007E
start                    init         000E
start_initialization     cinit        0011
strtok@sp                bssBANK0     003B
usart_init@BAUD          cstackBANK0  004B
wtemp0                   (abs)        007E


MODULE INFORMATION

Module		Function		Class		Link	Load	Size
usart.c
		_usart_init    		CODE           	01AC	0000	79

usart.c estimated size: 79

i2c.c
		_i2c_Slave_Init		CODE           	01FB	0000	34

i2c.c estimated size: 34

adc.c
		_adc_start     		CODE           	021D	0000	18
		_adc_init      		CODE           	0240	0000	15

adc.c estimated size: 33

shared
		__stringtab    		STRING         	022F	0000	6
		__initialization		CODE           	0011	0000	22

shared estimated size: 28

main.c
		_myISR         		CODE           	00C8	0000	145
		_main          		CODE           	0159	0000	83

main.c estimated size: 228

C:\Program Files\Microchip\xc8\v2.32\pic\sources\c90\common\aldiv.c
		___aldiv       		CODE           	002B	0000	157

C:\Program Files\Microchip\xc8\v2.32\pic\sources\c90\common\aldiv.c estimated size: 157

